; Function Attrs: mustprogress nofree norecurse nosync nounwind willreturn memory(argmem: write) uwtable
define void @png_set_read_status_fn(ptr noalias noundef writeonly %0, ptr noundef %1) local_unnamed_addr #4 {
  %3 = icmp eq ptr %0, null
  br i1 %3, label %6, label %4

4:                                                ; preds = %2
  %5 = getelementptr inbounds i8, ptr %0, i64 768
  store ptr %1, ptr %5, align 8
  br label %6

6:                                                ; preds = %2, %4
  ret void
}